target datalayout = "e-m:e-p270:32:32-p271:32:32-p272:64:64-i64:64-i128:128-f80:128-n8:16:32:64-S128"
target triple = "x86_64-unknown-linux-gnu"

%"struct.std::__cxx11::basic_string<char>::_Alloc_hider" = type { ptr }
%"class.std::basic_ios" = type { %"class.std::ios_base", ptr, i8, i8, ptr, ptr, ptr, ptr }
%"class.std::ios_base" = type { ptr, i64, i64, i32, i32, i32, ptr, %"struct.std::ios_base::_Words", [8 x %"struct.std::ios_base::_Words"], i32, ptr, %"class.std::locale" }
%"struct.std::ios_base::_Words" = type { ptr, i64 }
%"class.std::locale" = type { ptr }
%"class.std::__cxx11::basic_string" = type { %"struct.std::__cxx11::basic_string<char>::_Alloc_hider", i64, %union.anon }
%union.anon = type { i64, [8 x i8] }
%"class.std::basic_ostream.base" = type { ptr }
%"class.std::__cxx11::basic_stringbuf" = type { %"class.std::basic_streambuf", i32, %"class.std::__cxx11::basic_string" }
%"class.std::basic_streambuf" = type { ptr, ptr, ptr, ptr, ptr, ptr, ptr, %"class.std::locale" }
%"class.std::basic_string_view" = type { i64, ptr }
%"class.std::__cxx11::basic_ostringstream" = type { %"class.std::basic_ostream.base", %"class.std::__cxx11::basic_stringbuf", %"class.std::basic_ios" }
%"class.std::span.239" = type { ptr, %"class.std::__detail::__extent_storage" }
%"class.std::__detail::__extent_storage" = type { i64 }
%"class.std::vector.48" = type { %"struct.std::_Vector_base.49" }
%"struct.std::_Vector_base.49" = type { %"struct.std::_Vector_base<mold::elf::Symbol<mold::elf::SH4> *, std::allocator<mold::elf::Symbol<mold::elf::SH4> *>>::_Vector_impl" }
%"struct.std::_Vector_base<mold::elf::Symbol<mold::elf::SH4> *, std::allocator<mold::elf::Symbol<mold::elf::SH4> *>>::_Vector_impl" = type { %"struct.std::_Vector_base<mold::elf::Symbol<mold::elf::SH4> *, std::allocator<mold::elf::Symbol<mold::elf::SH4> *>>::_Vector_impl_data" }
%"struct.std::_Vector_base<mold::elf::Symbol<mold::elf::SH4> *, std::allocator<mold::elf::Symbol<mold::elf::SH4> *>>::_Vector_impl_data" = type { ptr, ptr, ptr }
%"struct.std::atomic.94" = type { %"struct.std::__atomic_base.95" }
%"struct.std::__atomic_base.95" = type { i8 }
%"struct.mold::Atomic" = type { %"struct.std::atomic.94" }
%"class.mold::MappedFile" = type <{ %"class.std::__cxx11::basic_string", ptr, i64, i8, [7 x i8], ptr, ptr, i32, [4 x i8] }>
%"class.mold::elf::InputFile" = type { ptr, ptr, %"class.std::span.238", %"class.std::span.239", %"class.std::vector.48", i64, %"class.std::__cxx11::basic_string", i8, i32, %"struct.mold::Atomic", %"class.std::basic_string_view", %"class.std::basic_string_view", i64, i64, i64, i64, i64, i64, %"class.std::vector.240", %"class.std::vector.245", %"class.std::vector.245" }
%"class.std::span.238" = type { ptr, %"class.std::__detail::__extent_storage" }
%"class.std::vector.240" = type { %"struct.std::_Vector_base.241" }
%"struct.std::_Vector_base.241" = type { %"struct.std::_Vector_base<int, std::allocator<int>>::_Vector_impl" }
%"struct.std::_Vector_base<int, std::allocator<int>>::_Vector_impl" = type { %"struct.std::_Vector_base<int, std::allocator<int>>::_Vector_impl_data" }
%"struct.std::_Vector_base<int, std::allocator<int>>::_Vector_impl_data" = type { ptr, ptr, ptr }
%"class.std::vector.245" = type { %"struct.std::_Vector_base.246" }
%"struct.std::_Vector_base.246" = type { %"struct.std::_Vector_base<mold::elf::Symbol<mold::elf::SH4>, std::allocator<mold::elf::Symbol<mold::elf::SH4>>>::_Vector_impl" }
%"struct.std::_Vector_base<mold::elf::Symbol<mold::elf::SH4>, std::allocator<mold::elf::Symbol<mold::elf::SH4>>>::_Vector_impl" = type { %"struct.std::_Vector_base<mold::elf::Symbol<mold::elf::SH4>, std::allocator<mold::elf::Symbol<mold::elf::SH4>>>::_Vector_impl_data" }
%"struct.std::_Vector_base<mold::elf::Symbol<mold::elf::SH4>, std::allocator<mold::elf::Symbol<mold::elf::SH4>>>::_Vector_impl_data" = type { ptr, ptr, ptr }

@.str.61 = private unnamed_addr constant [10 x i8] c"get_view\0A\00", align 1

; Function Attrs: mustprogress nounwind
define linkonce_odr dso_local noundef nonnull align 8 dereferenceable(112) ptr @_ZStlsINSt7__cxx1119basic_ostringstreamIcSt11char_traitsIcESaIcEEEA10_cEOT_S8_RKT0_(ptr noundef nonnull align 8 dereferenceable(112) %__os, ptr noundef nonnull align 1 dereferenceable(10) %__x) #4 comdat {
entry:
  %__os.addr = alloca ptr, align 8
  %__x.addr = alloca ptr, align 8
  store ptr %__os, ptr %__os.addr, align 8
  store ptr %__x, ptr %__x.addr, align 8
  %0 = load ptr, ptr %__os.addr, align 8
  %1 = load ptr, ptr %__x.addr, align 8
  %arraydecay = getelementptr inbounds [10 x i8], ptr %1, i64 0, i64 0
  %call = call noundef nonnull align 8 dereferenceable(8) ptr @_ZStlsISt11char_traitsIcEERSt13basic_ostreamIcT_ES5_PKc(ptr noundef nonnull align 8 dereferenceable(8) %0, ptr noundef %arraydecay)
  %2 = load ptr, ptr %__os.addr, align 8
  ret ptr %2
}

; Function Attrs: mustprogress nounwind
define internal noundef i32 @_ZN4mold3elfL8get_viewINS0_3SH4EEENS_12PluginStatusEPKvPS5_(ptr noundef %handle, ptr noundef %view) #4 {
entry:
  %handle.addr = alloca ptr, align 8
  %view.addr = alloca ptr, align 8
  %ref.tmp = alloca %"class.std::__cxx11::basic_ostringstream", align 8
  %file = alloca ptr, align 8
  store ptr %handle, ptr %handle.addr, align 8
  store ptr %view, ptr %view.addr, align 8
  call void @_ZNSt7__cxx1119basic_ostringstreamIcSt11char_traitsIcESaIcEEC1Ev(ptr noundef nonnull align 8 dereferenceable(112) %ref.tmp)
  %call = call noundef nonnull align 8 dereferenceable(112) ptr @_ZStlsINSt7__cxx1119basic_ostringstreamIcSt11char_traitsIcESaIcEEEA10_cEOT_S8_RKT0_(ptr noundef nonnull align 8 dereferenceable(112) %ref.tmp, ptr noundef nonnull align 1 dereferenceable(10) @.str.61)
  call void @_ZNSt7__cxx1119basic_ostringstreamIcSt11char_traitsIcESaIcEED1Ev(ptr noundef nonnull align 8 dereferenceable(112) %ref.tmp) #3
  %0 = load ptr, ptr %handle.addr, align 8
  store ptr %0, ptr %file, align 8
  %1 = load ptr, ptr %file, align 8
  %mf = getelementptr inbounds %"class.mold::elf::InputFile", ptr %1, i32 0, i32 1
  %2 = load ptr, ptr %mf, align 8
  %data = getelementptr inbounds %"class.mold::MappedFile", ptr %2, i32 0, i32 1
  %3 = load ptr, ptr %data, align 8
  %4 = load ptr, ptr %view.addr, align 8
  store ptr %3, ptr %4, align 8
  ret i32 0
}